target datalayout = "e-m:e-p270:32:32-p271:32:32-p272:64:64-i64:64-i128:128-f80:128-n8:16:32:64-S128"
target triple = "x86_64-unknown-linux-gnu"

%"class.llvh::StringRef" = type { ptr, i64 }

; Function Attrs: mustprogress nounwind uwtable
define internal noundef i32 @_ZL18parseOperator_implN4llvh9StringRefEPPKc(ptr %op.coerce0, i64 %op.coerce1, ptr noundef %lookup_table) #0 {
entry:
  %retval.i = alloca i32, align 4
  %Lhs.addr.i = alloca ptr, align 8
  %Rhs.addr.i = alloca ptr, align 8
  %Length.addr.i = alloca i64, align 8
  %RHS.i3 = alloca %"class.llvh::StringRef", align 8
  %this.addr.i4 = alloca ptr, align 8
  %this.addr.i = alloca ptr, align 8
  %Str.addr.i = alloca ptr, align 8
  %LHS.i = alloca %"class.llvh::StringRef", align 8
  %RHS.i = alloca %"class.llvh::StringRef", align 8
  %agg.tmp.i = alloca %"class.llvh::StringRef", align 8
  %op = alloca %"class.llvh::StringRef", align 8
  %lookup_table.addr = alloca ptr, align 8
  %i = alloca i32, align 4
  %agg.tmp = alloca %"class.llvh::StringRef", align 8
  %agg.tmp1 = alloca %"class.llvh::StringRef", align 8
  %0 = getelementptr inbounds { ptr, i64 }, ptr %op, i32 0, i32 0
  store ptr %op.coerce0, ptr %0, align 8
  %1 = getelementptr inbounds { ptr, i64 }, ptr %op, i32 0, i32 1
  store i64 %op.coerce1, ptr %1, align 8
  store ptr %lookup_table, ptr %lookup_table.addr, align 8
  store i32 0, ptr %i, align 4
  br label %for.cond

for.cond:                                         ; preds = %for.inc, %entry
  %2 = load i32, ptr %i, align 4
  %cmp = icmp slt i32 %2, 26
  br i1 %cmp, label %for.body, label %for.end

for.body:                                         ; preds = %for.cond
  call void @llvm.memcpy.p0.p0.i64(ptr align 8 %agg.tmp, ptr align 8 %op, i64 16, i1 false)
  %3 = load ptr, ptr %lookup_table.addr, align 8
  %4 = load i32, ptr %i, align 4
  %idxprom = sext i32 %4 to i64
  %arrayidx = getelementptr inbounds ptr, ptr %3, i64 %idxprom
  %5 = load ptr, ptr %arrayidx, align 8
  store ptr %agg.tmp1, ptr %this.addr.i, align 8
  store ptr %5, ptr %Str.addr.i, align 8
  %this1.i = load ptr, ptr %this.addr.i, align 8
  %6 = load ptr, ptr %Str.addr.i, align 8
  store ptr %6, ptr %this1.i, align 8
  %Length.i = getelementptr inbounds %"class.llvh::StringRef", ptr %this1.i, i32 0, i32 1
  %7 = load ptr, ptr %Str.addr.i, align 8
  %tobool.i = icmp ne ptr %7, null
  br i1 %tobool.i, label %cond.true.i, label %cond.false.i

cond.true.i:                                      ; preds = %for.body
  %8 = load ptr, ptr %Str.addr.i, align 8
  %call.i2 = call i64 @strlen(ptr noundef %8) #8
  br label %_ZN4llvh9StringRefC2EPKc.exit

cond.false.i:                                     ; preds = %for.body
  br label %_ZN4llvh9StringRefC2EPKc.exit

_ZN4llvh9StringRefC2EPKc.exit:                    ; preds = %cond.false.i, %cond.true.i
  %cond.i = phi i64 [ %call.i2, %cond.true.i ], [ 0, %cond.false.i ]
  store i64 %cond.i, ptr %Length.i, align 8
  %9 = getelementptr inbounds { ptr, i64 }, ptr %agg.tmp, i32 0, i32 0
  %10 = load ptr, ptr %9, align 8
  %11 = getelementptr inbounds { ptr, i64 }, ptr %agg.tmp, i32 0, i32 1
  %12 = load i64, ptr %11, align 8
  %13 = getelementptr inbounds { ptr, i64 }, ptr %agg.tmp1, i32 0, i32 0
  %14 = load ptr, ptr %13, align 8
  %15 = getelementptr inbounds { ptr, i64 }, ptr %agg.tmp1, i32 0, i32 1
  %16 = load i64, ptr %15, align 8
  store ptr %10, ptr %LHS.i, align 8
  %17 = getelementptr inbounds { ptr, i64 }, ptr %LHS.i, i32 0, i32 1
  store i64 %12, ptr %17, align 8
  store ptr %14, ptr %RHS.i, align 8
  %18 = getelementptr inbounds { ptr, i64 }, ptr %RHS.i, i32 0, i32 1
  store i64 %16, ptr %18, align 8
  call void @llvm.memcpy.p0.p0.i64(ptr align 8 %agg.tmp.i, ptr align 8 %RHS.i, i64 16, i1 false)
  %19 = load ptr, ptr %agg.tmp.i, align 8
  %20 = getelementptr inbounds { ptr, i64 }, ptr %agg.tmp.i, i32 0, i32 1
  %21 = load i64, ptr %20, align 8
  store ptr %19, ptr %RHS.i3, align 8
  %22 = getelementptr inbounds { ptr, i64 }, ptr %RHS.i3, i32 0, i32 1
  store i64 %21, ptr %22, align 8
  store ptr %LHS.i, ptr %this.addr.i4, align 8
  %this1.i5 = load ptr, ptr %this.addr.i4, align 8
  %Length.i6 = getelementptr inbounds %"class.llvh::StringRef", ptr %this1.i5, i32 0, i32 1
  %23 = load i64, ptr %Length.i6, align 8
  %Length2.i = getelementptr inbounds %"class.llvh::StringRef", ptr %RHS.i3, i32 0, i32 1
  %24 = load i64, ptr %Length2.i, align 8
  %cmp.i = icmp eq i64 %23, %24
  br i1 %cmp.i, label %land.rhs.i, label %_ZNK4llvh9StringRef6equalsES0_.exit

land.rhs.i:                                       ; preds = %_ZN4llvh9StringRefC2EPKc.exit
  %25 = load ptr, ptr %this1.i5, align 8
  %26 = load ptr, ptr %RHS.i3, align 8
  %Length4.i = getelementptr inbounds %"class.llvh::StringRef", ptr %RHS.i3, i32 0, i32 1
  %27 = load i64, ptr %Length4.i, align 8
  store ptr %25, ptr %Lhs.addr.i, align 8
  store ptr %26, ptr %Rhs.addr.i, align 8
  store i64 %27, ptr %Length.addr.i, align 8
  %28 = load i64, ptr %Length.addr.i, align 8
  %cmp.i8 = icmp eq i64 %28, 0
  br i1 %cmp.i8, label %if.then.i, label %if.end.i

if.then.i:                                        ; preds = %land.rhs.i
  store i32 0, ptr %retval.i, align 4
  br label %_ZN4llvh9StringRef13compareMemoryEPKcS2_m.exit

if.end.i:                                         ; preds = %land.rhs.i
  %29 = load ptr, ptr %Lhs.addr.i, align 8
  %30 = load ptr, ptr %Rhs.addr.i, align 8
  %31 = load i64, ptr %Length.addr.i, align 8
  %call.i = call i32 @memcmp(ptr noundef %29, ptr noundef %30, i64 noundef %31) #8
  store i32 %call.i, ptr %retval.i, align 4
  br label %_ZN4llvh9StringRef13compareMemoryEPKcS2_m.exit

_ZN4llvh9StringRef13compareMemoryEPKcS2_m.exit:   ; preds = %if.end.i, %if.then.i
  %32 = load i32, ptr %retval.i, align 4
  %cmp5.i = icmp eq i32 %32, 0
  br label %_ZNK4llvh9StringRef6equalsES0_.exit

_ZNK4llvh9StringRef6equalsES0_.exit:              ; preds = %_ZN4llvh9StringRef13compareMemoryEPKcS2_m.exit, %_ZN4llvh9StringRefC2EPKc.exit
  %33 = phi i1 [ false, %_ZN4llvh9StringRefC2EPKc.exit ], [ %cmp5.i, %_ZN4llvh9StringRef13compareMemoryEPKcS2_m.exit ]
  br i1 %33, label %if.then, label %if.end

if.then:                                          ; preds = %_ZNK4llvh9StringRef6equalsES0_.exit
  %34 = load i32, ptr %i, align 4
  ret i32 %34

if.end:                                           ; preds = %_ZNK4llvh9StringRef6equalsES0_.exit
  br label %for.inc

for.inc:                                          ; preds = %if.end
  %35 = load i32, ptr %i, align 4
  %inc = add nsw i32 %35, 1
  store i32 %inc, ptr %i, align 4
  br label %for.cond, !llvm.loop !6

for.end:                                          ; preds = %for.cond
  unreachable
}

; Function Attrs: mustprogress nounwind uwtable
define hidden noundef i32 @_ZN6hermes18BinaryOperatorInst23parseAssignmentOperatorEN4llvh9StringRefE(ptr %op.coerce0, i64 %op.coerce1) #0 align 2 {
entry:
  %op = alloca %"class.llvh::StringRef", align 8
  %agg.tmp = alloca %"class.llvh::StringRef", align 8
  %0 = getelementptr inbounds { ptr, i64 }, ptr %op, i32 0, i32 0
  store ptr %op.coerce0, ptr %0, align 8
  %1 = getelementptr inbounds { ptr, i64 }, ptr %op, i32 0, i32 1
  store i64 %op.coerce1, ptr %1, align 8
  call void @llvm.memcpy.p0.p0.i64(ptr align 8 %agg.tmp, ptr align 8 %op, i64 16, i1 false)
  %2 = getelementptr inbounds { ptr, i64 }, ptr %agg.tmp, i32 0, i32 0
  %3 = load ptr, ptr %2, align 8
  %4 = getelementptr inbounds { ptr, i64 }, ptr %agg.tmp, i32 0, i32 1
  %5 = load i64, ptr %4, align 8
  %call = call noundef i32 @_ZL18parseOperator_implN4llvh9StringRefEPPKc(ptr %3, i64 %5, ptr noundef @_ZN6hermes18BinaryOperatorInst22assignmentOpStringReprE)
  ret i32 %call
}