; Function Attrs: mustprogress nofree nounwind memory(read, inaccessiblemem: write) uwtable
define hidden noundef range(i32 -2147483648, 26) i32 @_ZN6hermes18BinaryOperatorInst23parseAssignmentOperatorEN4llvh9StringRefE(ptr readonly captures(none) %op.coerce0, i64 %op.coerce1) local_unnamed_addr #2 align 2 {
entry:
  %op.coerce1.fr.i = freeze i64 %op.coerce1
  %cmp.i9.i = icmp eq i64 %op.coerce1.fr.i, 0
  br i1 %cmp.i9.i, label %entry.split.us.i, label %for.cond.i

entry.split.us.i:                                 ; preds = %entry
  %0 = load ptr, ptr @_ZN6hermes18BinaryOperatorInst22assignmentOpStringReprE, align 16
  %tobool.i.not.us14.i = icmp eq ptr %0, null
  br i1 %tobool.i.not.us14.i, label %_ZL18parseOperator_implN4llvh9StringRefEPPKc.exit, label %_ZN4llvh9StringRefC2EPKc.exit.us.i

_ZN4llvh9StringRefC2EPKc.exit.us.i:               ; preds = %entry.split.us.i, %for.inc.us.i
  %indvars.iv18.i = phi i64 [ %indvars.iv.next19.i, %for.inc.us.i ], [ 0, %entry.split.us.i ]
  %1 = phi ptr [ %2, %for.inc.us.i ], [ %0, %entry.split.us.i ]
  %char0.i = load i8, ptr %1, align 1
  %cmp.i.us.i = icmp eq i8 %char0.i, 0
  br i1 %cmp.i.us.i, label %if.then.loopexit.i, label %for.inc.us.i

for.inc.us.i:                                     ; preds = %_ZN4llvh9StringRefC2EPKc.exit.us.i
  %indvars.iv.next19.i = add nuw nsw i64 %indvars.iv18.i, 1
  %cmp.us.i = icmp samesign ult i64 %indvars.iv18.i, 25
  tail call void @llvm.assume(i1 %cmp.us.i)
  %arrayidx.us.i = getelementptr inbounds nuw ptr, ptr @_ZN6hermes18BinaryOperatorInst22assignmentOpStringReprE, i64 %indvars.iv.next19.i
  %2 = load ptr, ptr %arrayidx.us.i, align 8
  %tobool.i.not.us.i = icmp eq ptr %2, null
  br i1 %tobool.i.not.us.i, label %if.then.loopexit.i, label %_ZN4llvh9StringRefC2EPKc.exit.us.i, !llvm.loop !6

for.cond.i:                                       ; preds = %entry, %for.inc.i
  %indvars.iv.i = phi i64 [ %indvars.iv.next.i, %for.inc.i ], [ 0, %entry ]
  %cmp.i = icmp samesign ult i64 %indvars.iv.i, 26
  tail call void @llvm.assume(i1 %cmp.i)
  %arrayidx.i = getelementptr inbounds nuw ptr, ptr @_ZN6hermes18BinaryOperatorInst22assignmentOpStringReprE, i64 %indvars.iv.i
  %3 = load ptr, ptr %arrayidx.i, align 8
  %tobool.i.not.i = icmp eq ptr %3, null
  br i1 %tobool.i.not.i, label %for.inc.i, label %_ZN4llvh9StringRefC2EPKc.exit.i

_ZN4llvh9StringRefC2EPKc.exit.i:                  ; preds = %for.cond.i
  %call.i2.i = tail call i64 @strlen(ptr noundef nonnull dereferenceable(1) %3) #16
  %cmp.i.i = icmp eq i64 %op.coerce1.fr.i, %call.i2.i
  br i1 %cmp.i.i, label %if.end.i.i, label %for.inc.i

if.end.i.i:                                       ; preds = %_ZN4llvh9StringRefC2EPKc.exit.i
  %bcmp.i = tail call i32 @bcmp(ptr readonly %op.coerce0, ptr nonnull %3, i64 %op.coerce1.fr.i)
  %4 = icmp eq i32 %bcmp.i, 0
  br i1 %4, label %if.then.loopexit21.i, label %for.inc.i

if.then.loopexit.i:                               ; preds = %for.inc.us.i, %_ZN4llvh9StringRefC2EPKc.exit.us.i
  %.us-phi.ph.ph.in.i = phi i64 [ %indvars.iv.next19.i, %for.inc.us.i ], [ %indvars.iv18.i, %_ZN4llvh9StringRefC2EPKc.exit.us.i ]
  %.us-phi.ph.ph.i = trunc nsw i64 %.us-phi.ph.ph.in.i to i32
  br label %_ZL18parseOperator_implN4llvh9StringRefEPPKc.exit

if.then.loopexit21.i:                             ; preds = %if.end.i.i
  %5 = trunc nuw nsw i64 %indvars.iv.i to i32
  br label %_ZL18parseOperator_implN4llvh9StringRefEPPKc.exit

for.inc.i:                                        ; preds = %if.end.i.i, %_ZN4llvh9StringRefC2EPKc.exit.i, %for.cond.i
  %indvars.iv.next.i = add nuw nsw i64 %indvars.iv.i, 1
  br label %for.cond.i, !llvm.loop !6

_ZL18parseOperator_implN4llvh9StringRefEPPKc.exit: ; preds = %entry.split.us.i, %if.then.loopexit.i, %if.then.loopexit21.i
  %.us-phi.i = phi i32 [ 0, %entry.split.us.i ], [ %.us-phi.ph.ph.i, %if.then.loopexit.i ], [ %5, %if.then.loopexit21.i ]
  ret i32 %.us-phi.i
}